; Function Attrs: mustprogress uwtable
define noundef ptr @_ZN6icu_7510UXMLParser12createParserER10UErrorCode(ptr noundef nonnull align 4 dereferenceable(4) %errorCode) local_unnamed_addr #1 align 2 personality ptr @__gxx_personality_v0 {
entry:
  %0 = load i32, ptr %errorCode, align 4
  %cmp.i = icmp slt i32 %0, 1
  br i1 %cmp.i, label %if.else, label %return

if.else:                                          ; preds = %entry
  %call1 = tail call noundef ptr @_ZN6icu_757UMemorynwEm(i64 noundef 4576) #11
  %new.isnull = icmp eq ptr %call1, null
  br i1 %new.isnull, label %return, label %new.notnull

new.notnull:                                      ; preds = %if.else
  invoke void @_ZN6icu_7510UXMLParserC1ER10UErrorCode(ptr noundef nonnull align 8 dereferenceable(4576) %call1, ptr noundef nonnull align 4 dereferenceable(4) %errorCode)
          to label %return unwind label %lpad

lpad:                                             ; preds = %new.notnull
  %1 = landingpad { ptr, i32 }
          cleanup
  tail call void @_ZN6icu_757UMemorydlEPv(ptr noundef nonnull %call1) #11
  resume { ptr, i32 } %1

return:                                           ; preds = %if.else, %new.notnull, %entry
  %retval.0 = phi ptr [ null, %entry ], [ null, %if.else ], [ %call1, %new.notnull ]
  ret ptr %retval.0
}